; ModuleID = '50/880.c'
source_filename = "50/880.c"
target datalayout = "e-m:e-p270:32:32-p271:32:32-p272:64:64-i64:64-f80:128-n8:16:32:64-S128"
target triple = "x86_64-pc-linux-gnu"

@__const.main.month = private unnamed_addr constant [13 x i32] [i32 0, i32 31, i32 28, i32 31, i32 30, i32 31, i32 30, i32 31, i32 31, i32 30, i32 31, i32 30, i32 31], align 16
@.str = private unnamed_addr constant [3 x i8] c"%d\00", align 1
@.str.1 = private unnamed_addr constant [4 x i8] c"%d\0A\00", align 1

; Function Attrs: noinline nounwind uwtable
define dso_local i32 @main() #0 {
  %1 = alloca i32, align 4
  %2 = alloca i32, align 4
  %3 = alloca i32, align 4
  %4 = alloca [400 x i32], align 16
  %5 = alloca i32, align 4
  %6 = alloca i32, align 4
  %7 = alloca i32, align 4
  %8 = alloca [13 x i32], align 16
  store i32 0, i32* %1, align 4
  store i32 0, i32* %3, align 4
  store i32 0, i32* %5, align 4
  %9 = bitcast [13 x i32]* %8 to i8*
  call void @llvm.memcpy.p0i8.p0i8.i64(i8* align 16 %9, i8* align 16 bitcast ([13 x i32]* @__const.main.month to i8*), i64 52, i1 false)
  %10 = call i32 (i8*, ...) @__isoc99_scanf(i8* getelementptr inbounds ([3 x i8], [3 x i8]* @.str, i64 0, i64 0), i32* %2)
  store i32 1, i32* %3, align 4
  br label %11

11:                                               ; preds = %49, %0
  %12 = load i32, i32* %3, align 4
  %13 = icmp sle i32 %12, 12
  br i1 %13, label %14, label %52

14:                                               ; preds = %11
  %15 = load i32, i32* %5, align 4
  %16 = load i32, i32* %3, align 4
  %17 = sub nsw i32 %16, 1
  %18 = sext i32 %17 to i64
  %19 = getelementptr inbounds [13 x i32], [13 x i32]* %8, i64 0, i64 %18
  %20 = load i32, i32* %19, align 4
  %21 = add nsw i32 %15, %20
  store i32 %21, i32* %5, align 4
  %22 = load i32, i32* %5, align 4
  %23 = add nsw i32 %22, 12
  %24 = srem i32 %23, 7
  store i32 %24, i32* %7, align 4
  %25 = load i32, i32* %2, align 4
  %26 = load i32, i32* %7, align 4
  %27 = add nsw i32 %25, %26
  store i32 %27, i32* %6, align 4
  %28 = load i32, i32* %6, align 4
  %29 = icmp sgt i32 %28, 7
  br i1 %29, label %30, label %40

30:                                               ; preds = %14
  %31 = load i32, i32* %6, align 4
  %32 = sub nsw i32 %31, 7
  store i32 %32, i32* %6, align 4
  %33 = load i32, i32* %6, align 4
  %34 = icmp eq i32 %33, 5
  br i1 %34, label %35, label %38

35:                                               ; preds = %30
  %36 = load i32, i32* %3, align 4
  %37 = call i32 (i8*, ...) @printf(i8* getelementptr inbounds ([4 x i8], [4 x i8]* @.str.1, i64 0, i64 0), i32 %36)
  br label %39

38:                                               ; preds = %30
  br label %49

39:                                               ; preds = %35
  br label %48

40:                                               ; preds = %14
  %41 = load i32, i32* %6, align 4
  %42 = icmp eq i32 %41, 5
  br i1 %42, label %43, label %46

43:                                               ; preds = %40
  %44 = load i32, i32* %3, align 4
  %45 = call i32 (i8*, ...) @printf(i8* getelementptr inbounds ([4 x i8], [4 x i8]* @.str.1, i64 0, i64 0), i32 %44)
  br label %47

46:                                               ; preds = %40
  br label %49

47:                                               ; preds = %43
  br label %48

48:                                               ; preds = %47, %39
  br label %49

49:                                               ; preds = %48, %46, %38
  %50 = load i32, i32* %3, align 4
  %51 = add nsw i32 %50, 1
  store i32 %51, i32* %3, align 4
  br label %11

52:                                               ; preds = %11
  ret i32 0
}

; Function Attrs: argmemonly nounwind willreturn
declare void @llvm.memcpy.p0i8.p0i8.i64(i8* noalias nocapture writeonly, i8* noalias nocapture readonly, i64, i1 immarg) #1

declare dso_local i32 @__isoc99_scanf(i8*, ...) #2

declare dso_local i32 @printf(i8*, ...) #2


!llvm.module.flags = !{!0}
!llvm.ident = !{!1}

!0 = !{i32 1, !"wchar_size", i32 4}
!1 = !{!"clang version 10.0.0-4ubuntu1 "}
